; Function Attrs: mustprogress nofree nounwind uwtable
define noundef nonnull ptr @_ZN9benchmark8internal9Benchmark11RepetitionsEi(ptr noundef nonnull returned writeonly align 8 captures(ret: address, provenance) dereferenceable(224) initializes((136, 140)) %0, i32 noundef %1) local_unnamed_addr #3 align 2 personality ptr @__gxx_personality_v0 {
  %3 = load atomic i8, ptr @_ZGVZN9benchmark8internal18GetNullLogInstanceEvE8null_log acquire, align 8
  %4 = icmp eq i8 %3, 0
  br i1 %4, label %5, label %_ZN9benchmark8internal18GetNullLogInstanceEv.exit, !prof !3

5:                                                ; preds = %2
  %6 = tail call i32 @__cxa_guard_acquire(ptr nonnull @_ZGVZN9benchmark8internal18GetNullLogInstanceEvE8null_log) #35
  %.not.i = icmp eq i32 %6, 0
  br i1 %.not.i, label %_ZN9benchmark8internal18GetNullLogInstanceEv.exit, label %7

7:                                                ; preds = %5
  store ptr null, ptr @_ZZN9benchmark8internal18GetNullLogInstanceEvE8null_log, align 8, !tbaa !18
  tail call void @__cxa_guard_release(ptr nonnull @_ZGVZN9benchmark8internal18GetNullLogInstanceEvE8null_log) #35
  br label %_ZN9benchmark8internal18GetNullLogInstanceEv.exit

_ZN9benchmark8internal18GetNullLogInstanceEv.exit: ; preds = %2, %5, %7
  %8 = getelementptr inbounds nuw i8, ptr %0, i64 136
  store i32 %1, ptr %8, align 8, !tbaa !176
  ret ptr %0
}